
gemm.elf:     file format elf32-littleriscv


Disassembly of section .text:

00000000 <_start>:
   0:	00052583          	lw	a1,0(a0)
   4:	00452603          	lw	a2,4(a0)
   8:	00852683          	lw	a3,8(a0)
   c:	00c52703          	lw	a4,12(a0)
  10:	01052783          	lw	a5,16(a0)
  14:	01452803          	lw	a6,20(a0)
  18:	f1402ff3          	csrr	t6,mhartid
  1c:	01fff313          	andi	t1,t6,31
  20:	00dfdf93          	srli	t6,t6,0xd
  24:	005f9f93          	slli	t6,t6,0x5
  28:	006f82b3          	add	t0,t6,t1
  2c:	03070f33          	mul	t5,a4,a6
  30:	07e2d263          	bge	t0,t5,94 <done_oob>
  34:	0302c333          	div	t1,t0,a6
  38:	0302e3b3          	rem	t2,t0,a6
  3c:	02f30e33          	mul	t3,t1,a5
  40:	002e1e13          	slli	t3,t3,0x2
  44:	01c58e33          	add	t3,a1,t3
  48:	00000293          	li	t0,0
  4c:	f00001d3          	fmv.w.x	ft3,zero

00000050 <loop>:
  50:	02f2d863          	bge	t0,a5,80 <done>
  54:	00229f13          	slli	t5,t0,0x2
  58:	01ee0eb3          	add	t4,t3,t5
  5c:	03028f33          	mul	t5,t0,a6
  60:	007f0f33          	add	t5,t5,t2
  64:	002f1f13          	slli	t5,t5,0x2
  68:	00cf0f33          	add	t5,t5,a2
  6c:	000ea007          	flw	ft0,0(t4)
  70:	000f2087          	flw	ft1,0(t5)
  74:	181071c3          	fmadd.s	ft3,ft0,ft1,ft3
  78:	00128293          	addi	t0,t0,1
  7c:	fd5ff06f          	j	50 <loop>

00000080 <done>:
  80:	03030f33          	mul	t5,t1,a6
  84:	007f0f33          	add	t5,t5,t2
  88:	002f1f13          	slli	t5,t5,0x2
  8c:	00df0f33          	add	t5,t5,a3
  90:	003f2027          	fsw	ft3,0(t5)

00000094 <done_oob>:
  94:	00100073          	ebreak
