
qkt_scale.elf:     file format elf32-littleriscv


Disassembly of section .text:

00000000 <_start>:
   0:	00052583          	lw	a1,0(a0)
   4:	00452603          	lw	a2,4(a0)
   8:	00852683          	lw	a3,8(a0)
   c:	00c52703          	lw	a4,12(a0)
  10:	f0070453          	fmv.w.x	fs0,a4
  14:	f14022f3          	csrr	t0,mhartid
  18:	01f2f293          	andi	t0,t0,31
  1c:	0012d313          	srli	t1,t0,0x1
  20:	0012f393          	andi	t2,t0,1
  24:	00339393          	slli	t2,t2,0x3
  28:	10000e13          	li	t3,256
  2c:	026e0e33          	mul	t3,t3,t1
  30:	01c58e33          	add	t3,a1,t3
  34:	02000e93          	li	t4,32
  38:	025e8eb3          	mul	t4,t4,t0
  3c:	01d68eb3          	add	t4,a3,t4
  40:	00000293          	li	t0,0
  44:	00538f33          	add	t5,t2,t0
  48:	008f1f13          	slli	t5,t5,0x8
  4c:	01e60f33          	add	t5,a2,t5
  50:	d0007153          	fcvt.s.w	ft2,zero
  54:	00000f93          	li	t6,0
  58:	000e0793          	mv	a5,t3
  5c:	000f0813          	mv	a6,t5
  60:	0007a007          	flw	ft0,0(a5)
  64:	00082087          	flw	ft1,0(a6)
  68:	10107143          	fmadd.s	ft2,ft0,ft1,ft2
  6c:	00478793          	addi	a5,a5,4
  70:	00480813          	addi	a6,a6,4
  74:	001f8f93          	addi	t6,t6,1
  78:	04000893          	li	a7,64
  7c:	ff1f92e3          	bne	t6,a7,60 <_start+0x60>
  80:	10817153          	fmul.s	ft2,ft2,fs0
  84:	00229793          	slli	a5,t0,0x2
  88:	00fe87b3          	add	a5,t4,a5
  8c:	0027a027          	fsw	ft2,0(a5)
  90:	00128293          	addi	t0,t0,1
  94:	00800813          	li	a6,8
  98:	fb0296e3          	bne	t0,a6,44 <_start+0x44>
  9c:	00100073          	ebreak
