
qkt_decode.elf:     file format elf32-littleriscv


Disassembly of section .text:

00000000 <_start>:
   0:	00052583          	lw	a1,0(a0)
   4:	00452603          	lw	a2,4(a0)
   8:	00852683          	lw	a3,8(a0)
   c:	00c52703          	lw	a4,12(a0)
  10:	01052783          	lw	a5,16(a0)
  14:	01452803          	lw	a6,20(a0)
  18:	01852883          	lw	a7,24(a0)
  1c:	01c52503          	lw	a0,28(a0)
  20:	00170493          	addi	s1,a4,1
  24:	f1402373          	csrr	t1,mhartid
  28:	01f37293          	andi	t0,t1,31
  2c:	00d35313          	srli	t1,t1,0xd
  30:	03134e33          	div	t3,t1,a7
  34:	03030eb3          	mul	t4,t1,a6
  38:	002e9e93          	slli	t4,t4,0x2
  3c:	00be8eb3          	add	t4,t4,a1
  40:	02f30f33          	mul	t5,t1,a5
  44:	002f1f13          	slli	t5,t5,0x2
  48:	00df0f33          	add	t5,t5,a3
  4c:	030e0fb3          	mul	t6,t3,a6
  50:	02ff8fb3          	mul	t6,t6,a5
  54:	002f9f93          	slli	t6,t6,0x2
  58:	00cf8fb3          	add	t6,t6,a2
  5c:	f00502d3          	fmv.w.x	ft5,a0

00000060 <loop>:
  60:	0492da63          	bge	t0,s1,b4 <done>
  64:	02580933          	mul	s2,a6,t0
  68:	00291913          	slli	s2,s2,0x2
  6c:	01f90933          	add	s2,s2,t6
  70:	00000993          	li	s3,0
  74:	f00000d3          	fmv.w.x	ft1,zero

00000078 <loop_sum>:
  78:	0309d263          	bge	s3,a6,9c <dot_done>
  7c:	00299a13          	slli	s4,s3,0x2
  80:	012a0ab3          	add	s5,s4,s2
  84:	01da0b33          	add	s6,s4,t4
  88:	000aa107          	flw	ft2,0(s5)
  8c:	000b2187          	flw	ft3,0(s6)
  90:	083170c3          	fmadd.s	ft1,ft2,ft3,ft1
  94:	00198993          	addi	s3,s3,1
  98:	fe1ff06f          	j	78 <loop_sum>

0000009c <dot_done>:
  9c:	1050f0d3          	fmul.s	ft1,ft1,ft5
  a0:	00229b93          	slli	s7,t0,0x2
  a4:	017f0bb3          	add	s7,t5,s7
  a8:	001ba027          	fsw	ft1,0(s7)
  ac:	02028293          	addi	t0,t0,32
  b0:	fb1ff06f          	j	60 <loop>

000000b4 <done>:
  b4:	00100073          	ebreak
