
rope.elf:     file format elf32-littleriscv


Disassembly of section .text:

00000000 <_start>:
   0:	00052583          	lw	a1,0(a0)
   4:	00452603          	lw	a2,4(a0)
   8:	00852683          	lw	a3,8(a0)
   c:	00c52703          	lw	a4,12(a0)
  10:	01052783          	lw	a5,16(a0)
  14:	f1402473          	csrr	s0,mhartid
  18:	01f47413          	andi	s0,s0,31
  1c:	00271913          	slli	s2,a4,0x2
  20:	00241993          	slli	s3,s0,0x2
  24:	032782b3          	mul	t0,a5,s2
  28:	00199393          	slli	t2,s3,0x1
  2c:	007282b3          	add	t0,t0,t2
  30:	00c282b3          	add	t0,t0,a2
  34:	0002a507          	flw	fa0,0(t0)
  38:	0042a587          	flw	fa1,4(t0)
  3c:	00000493          	li	s1,0

00000040 <head_loop>:
  40:	03248333          	mul	t1,s1,s2
  44:	01330333          	add	t1,t1,s3
  48:	00b30333          	add	t1,t1,a1
  4c:	00032607          	flw	fa2,0(t1)
  50:	08032687          	flw	fa3,128(t1)
  54:	10a67053          	fmul.s	ft0,fa2,fa0
  58:	10b6f0d3          	fmul.s	ft1,fa3,fa1
  5c:	10a6f153          	fmul.s	ft2,fa3,fa0
  60:	08107753          	fsub.s	fa4,ft0,ft1
  64:	10b677c3          	fmadd.s	fa5,fa2,fa1,ft2
  68:	00e32027          	fsw	fa4,0(t1)
  6c:	08f32027          	fsw	fa5,128(t1)
  70:	00148493          	addi	s1,s1,1
  74:	fcd4c6e3          	blt	s1,a3,40 <head_loop>
  78:	00100073          	ebreak
