
softmax16.elf:     file format elf32-littleriscv


Disassembly of section .text:

00000000 <_start>:
   0:	00052583          	lw	a1,0(a0)
   4:	00452603          	lw	a2,4(a0)
   8:	f14022f3          	csrr	t0,mhartid
   c:	00d2de13          	srli	t3,t0,0xd
  10:	01f2f293          	andi	t0,t0,31
  14:	006e1e93          	slli	t4,t3,0x6
  18:	01d58333          	add	t1,a1,t4
  1c:	01d603b3          	add	t2,a2,t4
  20:	01000f93          	li	t6,16
  24:	ff800f37          	lui	t5,0xff800
  28:	f00f00d3          	fmv.w.x	ft1,t5
  2c:	01f2da63          	bge	t0,t6,40 <A_virt>
  30:	00229e93          	slli	t4,t0,0x2
  34:	01d30eb3          	add	t4,t1,t4
  38:	000ea007          	flw	ft0,0(t4)
  3c:	0080006f          	j	44 <A_reduce>

00000040 <A_virt>:
  40:	20108053          	fmv.s	ft0,ft1

00000044 <A_reduce>:
  44:	0010018b          	.word	0x0010018b
  48:	28301053          	fmax.s	ft0,ft0,ft3
  4c:	0020018b          	.word	0x0020018b
  50:	28301053          	fmax.s	ft0,ft0,ft3
  54:	0040018b          	.word	0x0040018b
  58:	28301053          	fmax.s	ft0,ft0,ft3
  5c:	0080018b          	.word	0x0080018b
  60:	28301053          	fmax.s	ft0,ft0,ft3
  64:	0100018b          	.word	0x0100018b
  68:	28301053          	fmax.s	ft0,ft0,ft3
  6c:	200001d3          	fmv.s	ft3,ft0
  70:	01f2da63          	bge	t0,t6,84 <B_virt>
  74:	000ea007          	flw	ft0,0(t4)
  78:	08307053          	fsub.s	ft0,ft0,ft3
  7c:	f8000053          	.word	0xf8000053
  80:	0080006f          	j	88 <B_reduce>

00000084 <B_virt>:
  84:	d0007053          	fcvt.s.w	ft0,zero

00000088 <B_reduce>:
  88:	20000153          	fmv.s	ft2,ft0
  8c:	0010020b          	.word	0x0010020b
  90:	00407053          	fadd.s	ft0,ft0,ft4
  94:	0020020b          	.word	0x0020020b
  98:	00407053          	fadd.s	ft0,ft0,ft4
  9c:	0040020b          	.word	0x0040020b
  a0:	00407053          	fadd.s	ft0,ft0,ft4
  a4:	0080020b          	.word	0x0080020b
  a8:	00407053          	fadd.s	ft0,ft0,ft4
  ac:	0100020b          	.word	0x0100020b
  b0:	00407053          	fadd.s	ft0,ft0,ft4
  b4:	20000253          	fmv.s	ft4,ft0
  b8:	01f2da63          	bge	t0,t6,cc <done>
  bc:	18417053          	fdiv.s	ft0,ft2,ft4
  c0:	00229e93          	slli	t4,t0,0x2
  c4:	01d38eb3          	add	t4,t2,t4
  c8:	000ea027          	fsw	ft0,0(t4)

000000cc <done>:
  cc:	00100073          	ebreak
